target datalayout = "e-m:e-p270:32:32-p271:32:32-p272:64:64-i64:64-i128:128-f80:128-n8:16:32:64-S128"
target triple = "x86_64-unknown-linux-gnu"

%"class.std::basic_istream" = type { ptr, i64, %"class.std::basic_ios" }
%"class.std::basic_ios" = type { %"class.std::ios_base", ptr, i8, i8, ptr, ptr, ptr, ptr }
%"class.std::ios_base" = type { ptr, i64, i64, i32, i32, i32, ptr, %"struct.std::ios_base::_Words", [8 x %"struct.std::ios_base::_Words"], i32, ptr, %"class.std::locale" }
%"struct.std::ios_base::_Words" = type { ptr, i64 }
%"class.std::locale" = type { ptr }
%"class.std::basic_ostream" = type { ptr, %"class.std::basic_ios" }
%class.veloxtpFlexLexer = type <{ %class.FlexLexer.base, i32, i32, [4 x i8], ptr, %"class.std::basic_istream", %"class.std::basic_ostream", i8, [3 x i8], i32, ptr, i32, i32, i32, [4 x i8], i64, i64, ptr, i32, [4 x i8], ptr, ptr, ptr, ptr, ptr, i32, i32, i32, i32, i32, i32, i32, [4 x i8] }>
%class.FlexLexer.base = type <{ ptr, ptr, i32, i32, i32 }>
%class.FlexLexer = type <{ ptr, ptr, i32, i32, i32, [4 x i8] }>
%struct.yy_buffer_state = type { ptr, ptr, ptr, i32, i32, i32, i32, i32, i32, i32, i32, i32 }

; Function Attrs: mustprogress uwtable
define noundef i32 @_ZN16veloxtpFlexLexer7yyinputEv(ptr noundef nonnull align 8 dereferenceable(732) %this) #5 align 2 {
entry:
  %retval = alloca i32, align 4
  %this.addr = alloca ptr, align 8
  %c = alloca i32, align 4
  %offset = alloca i32, align 4
  store ptr %this, ptr %this.addr, align 8
  %this1 = load ptr, ptr %this.addr, align 8
  %yy_hold_char = getelementptr inbounds %class.veloxtpFlexLexer, ptr %this1, i32 0, i32 7
  %0 = load i8, ptr %yy_hold_char, align 8
  %yy_c_buf_p = getelementptr inbounds %class.veloxtpFlexLexer, ptr %this1, i32 0, i32 10
  %1 = load ptr, ptr %yy_c_buf_p, align 8
  store i8 %0, ptr %1, align 1
  %yy_c_buf_p2 = getelementptr inbounds %class.veloxtpFlexLexer, ptr %this1, i32 0, i32 10
  %2 = load ptr, ptr %yy_c_buf_p2, align 8
  %3 = load i8, ptr %2, align 1
  %conv = sext i8 %3 to i32
  %cmp = icmp eq i32 %conv, 0
  br i1 %cmp, label %if.then, label %if.end27

if.then:                                          ; preds = %entry
  %yy_c_buf_p3 = getelementptr inbounds %class.veloxtpFlexLexer, ptr %this1, i32 0, i32 10
  %4 = load ptr, ptr %yy_c_buf_p3, align 8
  %yy_buffer_stack = getelementptr inbounds %class.veloxtpFlexLexer, ptr %this1, i32 0, i32 17
  %5 = load ptr, ptr %yy_buffer_stack, align 8
  %yy_buffer_stack_top = getelementptr inbounds %class.veloxtpFlexLexer, ptr %this1, i32 0, i32 15
  %6 = load i64, ptr %yy_buffer_stack_top, align 8
  %arrayidx = getelementptr inbounds ptr, ptr %5, i64 %6
  %7 = load ptr, ptr %arrayidx, align 8
  %yy_ch_buf = getelementptr inbounds %struct.yy_buffer_state, ptr %7, i32 0, i32 1
  %8 = load ptr, ptr %yy_ch_buf, align 8
  %yy_n_chars = getelementptr inbounds %class.veloxtpFlexLexer, ptr %this1, i32 0, i32 9
  %9 = load i32, ptr %yy_n_chars, align 4
  %idxprom = sext i32 %9 to i64
  %arrayidx4 = getelementptr inbounds i8, ptr %8, i64 %idxprom
  %cmp5 = icmp ult ptr %4, %arrayidx4
  br i1 %cmp5, label %if.then6, label %if.else

if.then6:                                         ; preds = %if.then
  %yy_c_buf_p7 = getelementptr inbounds %class.veloxtpFlexLexer, ptr %this1, i32 0, i32 10
  %10 = load ptr, ptr %yy_c_buf_p7, align 8
  store i8 0, ptr %10, align 1
  br label %if.end26

if.else:                                          ; preds = %if.then
  %yy_c_buf_p8 = getelementptr inbounds %class.veloxtpFlexLexer, ptr %this1, i32 0, i32 10
  %11 = load ptr, ptr %yy_c_buf_p8, align 8
  %yytext = getelementptr inbounds %class.FlexLexer, ptr %this1, i32 0, i32 1
  %12 = load ptr, ptr %yytext, align 8
  %sub.ptr.lhs.cast = ptrtoint ptr %11 to i64
  %sub.ptr.rhs.cast = ptrtoint ptr %12 to i64
  %sub.ptr.sub = sub i64 %sub.ptr.lhs.cast, %sub.ptr.rhs.cast
  %conv9 = trunc i64 %sub.ptr.sub to i32
  store i32 %conv9, ptr %offset, align 4
  %yy_c_buf_p10 = getelementptr inbounds %class.veloxtpFlexLexer, ptr %this1, i32 0, i32 10
  %13 = load ptr, ptr %yy_c_buf_p10, align 8
  %incdec.ptr = getelementptr inbounds i8, ptr %13, i32 1
  store ptr %incdec.ptr, ptr %yy_c_buf_p10, align 8
  %call = call noundef i32 @_ZN16veloxtpFlexLexer18yy_get_next_bufferEv(ptr noundef nonnull align 8 dereferenceable(732) %this1)
  switch i32 %call, label %sw.epilog [
    i32 2, label %sw.bb
    i32 1, label %sw.bb11
    i32 0, label %sw.bb23
  ]

sw.bb:                                            ; preds = %if.else
  %yyin = getelementptr inbounds %class.veloxtpFlexLexer, ptr %this1, i32 0, i32 5
  %vtable = load ptr, ptr %this1, align 8
  %vfn = getelementptr inbounds ptr, ptr %vtable, i64 7
  %14 = load ptr, ptr %vfn, align 8
  call void %14(ptr noundef nonnull align 8 dereferenceable(732) %this1, ptr noundef nonnull align 8 dereferenceable(16) %yyin)
  br label %sw.bb11

sw.bb11:                                          ; preds = %sw.bb, %if.else
  %vtable12 = load ptr, ptr %this1, align 8
  %vfn13 = getelementptr inbounds ptr, ptr %vtable12, i64 11
  %15 = load ptr, ptr %vfn13, align 8
  %call14 = call noundef i32 %15(ptr noundef nonnull align 8 dereferenceable(732) %this1)
  %tobool = icmp ne i32 %call14, 0
  br i1 %tobool, label %if.then15, label %if.end

if.then15:                                        ; preds = %sw.bb11
  store i32 0, ptr %retval, align 4
  br label %return

if.end:                                           ; preds = %sw.bb11
  %yy_did_buffer_switch_on_eof = getelementptr inbounds %class.veloxtpFlexLexer, ptr %this1, i32 0, i32 13
  %16 = load i32, ptr %yy_did_buffer_switch_on_eof, align 8
  %tobool16 = icmp ne i32 %16, 0
  br i1 %tobool16, label %if.end21, label %if.then17

if.then17:                                        ; preds = %if.end
  %yyin18 = getelementptr inbounds %class.veloxtpFlexLexer, ptr %this1, i32 0, i32 5
  %vtable19 = load ptr, ptr %this1, align 8
  %vfn20 = getelementptr inbounds ptr, ptr %vtable19, i64 7
  %17 = load ptr, ptr %vfn20, align 8
  call void %17(ptr noundef nonnull align 8 dereferenceable(732) %this1, ptr noundef nonnull align 8 dereferenceable(16) %yyin18)
  br label %if.end21

if.end21:                                         ; preds = %if.then17, %if.end
  %call22 = call noundef i32 @_ZN16veloxtpFlexLexer7yyinputEv(ptr noundef nonnull align 8 dereferenceable(732) %this1)
  store i32 %call22, ptr %retval, align 4
  br label %return

sw.bb23:                                          ; preds = %if.else
  %yytext24 = getelementptr inbounds %class.FlexLexer, ptr %this1, i32 0, i32 1
  %18 = load ptr, ptr %yytext24, align 8
  %19 = load i32, ptr %offset, align 4
  %idx.ext = sext i32 %19 to i64
  %add.ptr = getelementptr inbounds i8, ptr %18, i64 %idx.ext
  %yy_c_buf_p25 = getelementptr inbounds %class.veloxtpFlexLexer, ptr %this1, i32 0, i32 10
  store ptr %add.ptr, ptr %yy_c_buf_p25, align 8
  br label %sw.epilog

sw.epilog:                                        ; preds = %sw.bb23, %if.else
  br label %if.end26

if.end26:                                         ; preds = %sw.epilog, %if.then6
  br label %if.end27

if.end27:                                         ; preds = %if.end26, %entry
  %yy_c_buf_p28 = getelementptr inbounds %class.veloxtpFlexLexer, ptr %this1, i32 0, i32 10
  %20 = load ptr, ptr %yy_c_buf_p28, align 8
  %21 = load i8, ptr %20, align 1
  %conv29 = zext i8 %21 to i32
  store i32 %conv29, ptr %c, align 4
  %yy_c_buf_p30 = getelementptr inbounds %class.veloxtpFlexLexer, ptr %this1, i32 0, i32 10
  %22 = load ptr, ptr %yy_c_buf_p30, align 8
  store i8 0, ptr %22, align 1
  %yy_c_buf_p31 = getelementptr inbounds %class.veloxtpFlexLexer, ptr %this1, i32 0, i32 10
  %23 = load ptr, ptr %yy_c_buf_p31, align 8
  %incdec.ptr32 = getelementptr inbounds i8, ptr %23, i32 1
  store ptr %incdec.ptr32, ptr %yy_c_buf_p31, align 8
  %24 = load i8, ptr %incdec.ptr32, align 1
  %yy_hold_char33 = getelementptr inbounds %class.veloxtpFlexLexer, ptr %this1, i32 0, i32 7
  store i8 %24, ptr %yy_hold_char33, align 8
  %25 = load i32, ptr %c, align 4
  store i32 %25, ptr %retval, align 4
  br label %return

return:                                           ; preds = %if.end27, %if.end21, %if.then15
  %26 = load i32, ptr %retval, align 4
  ret i32 %26
}