; Function Attrs: mustprogress uwtable
define noundef i32 @_ZN16veloxtpFlexLexer7yyinputEv(ptr noundef nonnull align 8 dereferenceable(732) %this) local_unnamed_addr #4 align 2 {
entry:
  %yy_hold_char = getelementptr inbounds i8, ptr %this, i64 600
  %yy_c_buf_p = getelementptr inbounds i8, ptr %this, i64 608
  %0 = load i8, ptr %yy_hold_char, align 8
  %1 = load ptr, ptr %yy_c_buf_p, align 8
  store i8 %0, ptr %1, align 1
  %2 = load ptr, ptr %yy_c_buf_p, align 8
  %3 = load i8, ptr %2, align 1
  %cmp22 = icmp eq i8 %3, 0
  br i1 %cmp22, label %if.then.lr.ph, label %if.end27

if.then.lr.ph:                                    ; preds = %entry
  %yy_buffer_stack = getelementptr inbounds i8, ptr %this, i64 648
  %yy_buffer_stack_top = getelementptr inbounds i8, ptr %this, i64 632
  %yy_n_chars = getelementptr inbounds i8, ptr %this, i64 604
  %yytext = getelementptr inbounds i8, ptr %this, i64 8
  %yyin = getelementptr inbounds i8, ptr %this, i64 48
  %yy_did_buffer_switch_on_eof = getelementptr inbounds i8, ptr %this, i64 624
  br label %if.then

if.then:                                          ; preds = %if.then.lr.ph, %if.end21
  %4 = phi ptr [ %2, %if.then.lr.ph ], [ %17, %if.end21 ]
  %5 = load ptr, ptr %yy_buffer_stack, align 8
  %6 = load i64, ptr %yy_buffer_stack_top, align 8
  %arrayidx = getelementptr inbounds ptr, ptr %5, i64 %6
  %7 = load ptr, ptr %arrayidx, align 8
  %yy_ch_buf = getelementptr inbounds i8, ptr %7, i64 8
  %8 = load ptr, ptr %yy_ch_buf, align 8
  %9 = load i32, ptr %yy_n_chars, align 4
  %idxprom = sext i32 %9 to i64
  %arrayidx4 = getelementptr inbounds i8, ptr %8, i64 %idxprom
  %cmp5 = icmp ult ptr %4, %arrayidx4
  br i1 %cmp5, label %if.then6, label %if.else

if.then6:                                         ; preds = %if.then
  store i8 0, ptr %4, align 1
  %.pre = load ptr, ptr %yy_c_buf_p, align 8
  br label %if.end27

if.else:                                          ; preds = %if.then
  %10 = load ptr, ptr %yytext, align 8
  %incdec.ptr = getelementptr inbounds i8, ptr %4, i64 1
  store ptr %incdec.ptr, ptr %yy_c_buf_p, align 8
  %call = tail call noundef i32 @_ZN16veloxtpFlexLexer18yy_get_next_bufferEv(ptr noundef nonnull align 8 dereferenceable(732) %this), !range !8
  switch i32 %call, label %default.unreachable31 [
    i32 2, label %sw.bb
    i32 1, label %sw.bb11
    i32 0, label %sw.bb23
  ]

sw.bb:                                            ; preds = %if.else
  %vtable = load ptr, ptr %this, align 8
  %vfn = getelementptr inbounds i8, ptr %vtable, i64 56
  %11 = load ptr, ptr %vfn, align 8
  tail call void %11(ptr noundef nonnull align 8 dereferenceable(732) %this, ptr noundef nonnull align 8 dereferenceable(16) %yyin)
  br label %sw.bb11

sw.bb11:                                          ; preds = %sw.bb, %if.else
  %vtable12 = load ptr, ptr %this, align 8
  %vfn13 = getelementptr inbounds i8, ptr %vtable12, i64 88
  %12 = load ptr, ptr %vfn13, align 8
  %call14 = tail call noundef i32 %12(ptr noundef nonnull align 8 dereferenceable(732) %this)
  %tobool.not = icmp eq i32 %call14, 0
  br i1 %tobool.not, label %if.end, label %return

if.end:                                           ; preds = %sw.bb11
  %13 = load i32, ptr %yy_did_buffer_switch_on_eof, align 8
  %tobool16.not = icmp eq i32 %13, 0
  br i1 %tobool16.not, label %if.then17, label %if.end21

if.then17:                                        ; preds = %if.end
  %vtable19 = load ptr, ptr %this, align 8
  %vfn20 = getelementptr inbounds i8, ptr %vtable19, i64 56
  %14 = load ptr, ptr %vfn20, align 8
  tail call void %14(ptr noundef nonnull align 8 dereferenceable(732) %this, ptr noundef nonnull align 8 dereferenceable(16) %yyin)
  br label %if.end21

if.end21:                                         ; preds = %if.then17, %if.end
  %15 = load i8, ptr %yy_hold_char, align 8
  %16 = load ptr, ptr %yy_c_buf_p, align 8
  store i8 %15, ptr %16, align 1
  %17 = load ptr, ptr %yy_c_buf_p, align 8
  %18 = load i8, ptr %17, align 1
  %cmp = icmp eq i8 %18, 0
  br i1 %cmp, label %if.then, label %if.end27

sw.bb23:                                          ; preds = %if.else
  %sub.ptr.lhs.cast = ptrtoint ptr %4 to i64
  %sub.ptr.rhs.cast = ptrtoint ptr %10 to i64
  %sub.ptr.sub = sub i64 %sub.ptr.lhs.cast, %sub.ptr.rhs.cast
  %19 = load ptr, ptr %yytext, align 8
  %sext = shl i64 %sub.ptr.sub, 32
  %idx.ext = ashr exact i64 %sext, 32
  %add.ptr = getelementptr inbounds i8, ptr %19, i64 %idx.ext
  store ptr %add.ptr, ptr %yy_c_buf_p, align 8
  br label %if.end27

default.unreachable31:                            ; preds = %if.else
  unreachable

if.end27:                                         ; preds = %if.end21, %entry, %if.then6, %sw.bb23
  %20 = phi ptr [ %.pre, %if.then6 ], [ %add.ptr, %sw.bb23 ], [ %2, %entry ], [ %17, %if.end21 ]
  %21 = load i8, ptr %20, align 1
  %conv29 = zext i8 %21 to i32
  store i8 0, ptr %20, align 1
  %22 = load ptr, ptr %yy_c_buf_p, align 8
  %incdec.ptr32 = getelementptr inbounds i8, ptr %22, i64 1
  store ptr %incdec.ptr32, ptr %yy_c_buf_p, align 8
  %23 = load i8, ptr %incdec.ptr32, align 1
  store i8 %23, ptr %yy_hold_char, align 8
  br label %return

return:                                           ; preds = %sw.bb11, %if.end27
  %retval.0 = phi i32 [ %conv29, %if.end27 ], [ 0, %sw.bb11 ]
  ret i32 %retval.0
}